; Function Attrs: nounwind uwtable
define noalias noundef ptr @Gia_ManMaxiTest(ptr noundef readonly captures(none) %0, ptr noundef %1, i32 noundef %2, i32 noundef %3, i32 noundef %4, i32 noundef %5, i32 noundef %6) local_unnamed_addr #0 {
  %.not = icmp eq ptr %1, null
  br i1 %.not, label %9, label %Vec_IntStart.exit.thread

Vec_IntStart.exit.thread:                         ; preds = %7
  %8 = tail call ptr @Gia_ManMaxiPerform(ptr noundef %0, ptr noundef nonnull %1, i32 noundef %2, i32 noundef %4, i32 noundef %6)
  br label %25

9:                                                ; preds = %7
  %10 = getelementptr i8, ptr %0, i64 16
  %.val = load i32, ptr %10, align 8
  %11 = tail call noalias dereferenceable_or_null(16) ptr @malloc(i64 noundef 16) #18
  %12 = add i32 %.val, -1
  %or.cond.i.i = icmp ult i32 %12, 15
  %spec.store.select.i.i = select i1 %or.cond.i.i, i32 16, i32 %.val
  %13 = getelementptr inbounds nuw i8, ptr %11, i64 4
  store i32 %spec.store.select.i.i, ptr %11, align 8
  %.not.i.i = icmp eq i32 %spec.store.select.i.i, 0
  br i1 %.not.i.i, label %Vec_IntAlloc.exit.thread.i, label %Vec_IntAlloc.exit.i

Vec_IntAlloc.exit.thread.i:                       ; preds = %9
  %14 = getelementptr inbounds nuw i8, ptr %11, i64 8
  store ptr null, ptr %14, align 8
  store i32 %.val, ptr %13, align 4
  br label %Vec_IntStart.exit.thread15

Vec_IntAlloc.exit.i:                              ; preds = %9
  %15 = sext i32 %spec.store.select.i.i to i64
  %16 = shl nsw i64 %15, 2
  %17 = tail call noalias ptr @malloc(i64 noundef %16) #18
  %18 = getelementptr inbounds nuw i8, ptr %11, i64 8
  store ptr %17, ptr %18, align 8
  store i32 %.val, ptr %13, align 4
  %.not.i = icmp eq ptr %17, null
  br i1 %.not.i, label %Vec_IntStart.exit.thread15, label %20

Vec_IntStart.exit.thread15:                       ; preds = %Vec_IntAlloc.exit.i, %Vec_IntAlloc.exit.thread.i
  %19 = tail call ptr @Gia_ManMaxiPerform(ptr noundef nonnull %0, ptr noundef nonnull %11, i32 noundef %2, i32 noundef %4, i32 noundef %6)
  br label %Vec_IntFree.exit

20:                                               ; preds = %Vec_IntAlloc.exit.i
  %21 = sext i32 %.val to i64
  %22 = shl nsw i64 %21, 2
  tail call void @llvm.memset.p0.i64(ptr nonnull align 4 %17, i8 0, i64 %22, i1 false)
  %23 = tail call ptr @Gia_ManMaxiPerform(ptr noundef nonnull %0, ptr noundef nonnull %11, i32 noundef %2, i32 noundef %4, i32 noundef %6)
  tail call void @free(ptr noundef nonnull %17) #16
  br label %Vec_IntFree.exit

Vec_IntFree.exit:                                 ; preds = %Vec_IntStart.exit.thread15, %20
  %24 = phi ptr [ %19, %Vec_IntStart.exit.thread15 ], [ %23, %20 ]
  tail call void @free(ptr noundef nonnull %11) #16
  br label %25

25:                                               ; preds = %Vec_IntStart.exit.thread, %Vec_IntFree.exit
  %26 = phi ptr [ %8, %Vec_IntStart.exit.thread ], [ %24, %Vec_IntFree.exit ]
  ret ptr %26
}